target datalayout = "e-m:e-p270:32:32-p271:32:32-p272:64:64-i64:64-i128:128-f80:128-n8:16:32:64-S128"
target triple = "x86_64-pc-linux-gnu"

%struct.PyVarObject = type { %struct._object, i64 }
%struct._object = type { %union.anon, ptr }
%union.anon = type { i64 }

; Function Attrs: inlinehint nounwind uwtable
define internal i64 @Py_SIZE(ptr noundef %0) #4 {
  %2 = alloca ptr, align 8
  store ptr %0, ptr %2, align 8, !tbaa !4
  %3 = load ptr, ptr %2, align 8, !tbaa !4
  %4 = getelementptr inbounds nuw %struct.PyVarObject, ptr %3, i32 0, i32 1
  %5 = load i64, ptr %4, align 8, !tbaa !76
  ret i64 %5
}

; Function Attrs: nounwind uwtable
define internal ptr @builtin___import___impl(ptr noundef %0, ptr noundef %1, ptr noundef %2, ptr noundef %3, ptr noundef %4, i32 noundef %5) #0 {
  %7 = alloca ptr, align 8
  %8 = alloca ptr, align 8
  %9 = alloca ptr, align 8
  %10 = alloca ptr, align 8
  %11 = alloca ptr, align 8
  %12 = alloca i32, align 4
  store ptr %0, ptr %7, align 8, !tbaa !4
  store ptr %1, ptr %8, align 8, !tbaa !4
  store ptr %2, ptr %9, align 8, !tbaa !4
  store ptr %3, ptr %10, align 8, !tbaa !4
  store ptr %4, ptr %11, align 8, !tbaa !4
  store i32 %5, ptr %12, align 4, !tbaa !38
  %13 = load ptr, ptr %8, align 8, !tbaa !4
  %14 = load ptr, ptr %9, align 8, !tbaa !4
  %15 = load ptr, ptr %10, align 8, !tbaa !4
  %16 = load ptr, ptr %11, align 8, !tbaa !4
  %17 = load i32, ptr %12, align 4, !tbaa !38
  %18 = call ptr @PyImport_ImportModuleLevelObject(ptr noundef %13, ptr noundef %14, ptr noundef %15, ptr noundef %16, i32 noundef %17)
  ret ptr %18
}

; Function Attrs: inlinehint nounwind uwtable
define internal i64 @PyTuple_GET_SIZE(ptr noundef %0) #4 {
  %2 = alloca ptr, align 8
  %3 = alloca ptr, align 8
  store ptr %0, ptr %2, align 8, !tbaa !4
  call void @llvm.lifetime.start.p0(i64 8, ptr %3) #9
  %4 = load ptr, ptr %2, align 8, !tbaa !4
  store ptr %4, ptr %3, align 8, !tbaa !9
  %5 = load ptr, ptr %3, align 8, !tbaa !9
  %6 = call i64 @Py_SIZE(ptr noundef %5)
  call void @llvm.lifetime.end.p0(i64 8, ptr %3) #9
  ret i64 %6
}

; Function Attrs: nounwind uwtable
define internal ptr @builtin___import__(ptr noundef %0, ptr noundef %1, i64 noundef %2, ptr noundef %3) #0 {
  %5 = alloca ptr, align 8
  %6 = alloca ptr, align 8
  %7 = alloca i64, align 8
  %8 = alloca ptr, align 8
  %9 = alloca ptr, align 8
  %10 = alloca [5 x ptr], align 16
  %11 = alloca i64, align 8
  %12 = alloca ptr, align 8
  %13 = alloca ptr, align 8
  %14 = alloca ptr, align 8
  %15 = alloca ptr, align 8
  %16 = alloca i32, align 4
  store ptr %0, ptr %5, align 8, !tbaa !4
  store ptr %1, ptr %6, align 8, !tbaa !44
  store i64 %2, ptr %7, align 8, !tbaa !40
  store ptr %3, ptr %8, align 8, !tbaa !4
  call void @llvm.lifetime.start.p0(i64 8, ptr %9) #9
  store ptr null, ptr %9, align 8, !tbaa !4
  call void @llvm.lifetime.start.p0(i64 40, ptr %10) #9
  call void @llvm.lifetime.start.p0(i64 8, ptr %11) #9
  %17 = load i64, ptr %7, align 8, !tbaa !40
  %18 = load ptr, ptr %8, align 8, !tbaa !4
  %19 = icmp ne ptr %18, null
  br i1 %19, label %20, label %23

20:                                               ; preds = %4
  %21 = load ptr, ptr %8, align 8, !tbaa !4
  %22 = call i64 @PyTuple_GET_SIZE(ptr noundef %21)
  br label %24

23:                                               ; preds = %4
  br label %24

24:                                               ; preds = %23, %20
  %25 = phi i64 [ %22, %20 ], [ 0, %23 ]
  %26 = add i64 %17, %25
  %27 = sub i64 %26, 1
  store i64 %27, ptr %11, align 8, !tbaa !40
  call void @llvm.lifetime.start.p0(i64 8, ptr %12) #9
  call void @llvm.lifetime.start.p0(i64 8, ptr %13) #9
  store ptr null, ptr %13, align 8, !tbaa !4
  call void @llvm.lifetime.start.p0(i64 8, ptr %14) #9
  store ptr null, ptr %14, align 8, !tbaa !4
  call void @llvm.lifetime.start.p0(i64 8, ptr %15) #9
  store ptr null, ptr %15, align 8, !tbaa !4
  call void @llvm.lifetime.start.p0(i64 4, ptr %16) #9
  store i32 0, ptr %16, align 4, !tbaa !38
  %28 = load ptr, ptr %8, align 8, !tbaa !4
  %29 = icmp eq ptr %28, null
  br i1 %29, label %30, label %41

30:                                               ; preds = %24
  %31 = load i64, ptr %7, align 8, !tbaa !40
  %32 = icmp sle i64 1, %31
  br i1 %32, label %33, label %41

33:                                               ; preds = %30
  %34 = load i64, ptr %7, align 8, !tbaa !40
  %35 = icmp sle i64 %34, 5
  br i1 %35, label %36, label %41

36:                                               ; preds = %33
  %37 = load ptr, ptr %6, align 8, !tbaa !44
  %38 = icmp ne ptr %37, null
  br i1 %38, label %39, label %41

39:                                               ; preds = %36
  %40 = load ptr, ptr %6, align 8, !tbaa !44
  br label %47

41:                                               ; preds = %36, %33, %30, %24
  %42 = load ptr, ptr %6, align 8, !tbaa !44
  %43 = load i64, ptr %7, align 8, !tbaa !40
  %44 = load ptr, ptr %8, align 8, !tbaa !4
  %45 = getelementptr inbounds [5 x ptr], ptr %10, i64 0, i64 0
  %46 = call ptr @_PyArg_UnpackKeywords(ptr noundef %42, i64 noundef %43, ptr noundef null, ptr noundef %44, ptr noundef @builtin___import__._parser, i32 noundef 1, i32 noundef 5, i32 noundef 0, i32 noundef 0, ptr noundef %45)
  br label %47

47:                                               ; preds = %41, %39
  %48 = phi ptr [ %40, %39 ], [ %46, %41 ]
  store ptr %48, ptr %6, align 8, !tbaa !44
  %49 = load ptr, ptr %6, align 8, !tbaa !44
  %50 = icmp ne ptr %49, null
  br i1 %50, label %52, label %51

51:                                               ; preds = %47
  br label %121

52:                                               ; preds = %47
  %53 = load ptr, ptr %6, align 8, !tbaa !44
  %54 = getelementptr ptr, ptr %53, i64 0
  %55 = load ptr, ptr %54, align 8, !tbaa !4
  store ptr %55, ptr %12, align 8, !tbaa !4
  %56 = load i64, ptr %11, align 8, !tbaa !40
  %57 = icmp ne i64 %56, 0
  br i1 %57, label %59, label %58

58:                                               ; preds = %52
  br label %113

59:                                               ; preds = %52
  %60 = load ptr, ptr %6, align 8, !tbaa !44
  %61 = getelementptr ptr, ptr %60, i64 1
  %62 = load ptr, ptr %61, align 8, !tbaa !4
  %63 = icmp ne ptr %62, null
  br i1 %63, label %64, label %73

64:                                               ; preds = %59
  %65 = load ptr, ptr %6, align 8, !tbaa !44
  %66 = getelementptr ptr, ptr %65, i64 1
  %67 = load ptr, ptr %66, align 8, !tbaa !4
  store ptr %67, ptr %13, align 8, !tbaa !4
  %68 = load i64, ptr %11, align 8, !tbaa !40
  %69 = add i64 %68, -1
  store i64 %69, ptr %11, align 8, !tbaa !40
  %70 = icmp ne i64 %69, 0
  br i1 %70, label %72, label %71

71:                                               ; preds = %64
  br label %113

72:                                               ; preds = %64
  br label %73

73:                                               ; preds = %72, %59
  %74 = load ptr, ptr %6, align 8, !tbaa !44
  %75 = getelementptr ptr, ptr %74, i64 2
  %76 = load ptr, ptr %75, align 8, !tbaa !4
  %77 = icmp ne ptr %76, null
  br i1 %77, label %78, label %87

78:                                               ; preds = %73
  %79 = load ptr, ptr %6, align 8, !tbaa !44
  %80 = getelementptr ptr, ptr %79, i64 2
  %81 = load ptr, ptr %80, align 8, !tbaa !4
  store ptr %81, ptr %14, align 8, !tbaa !4
  %82 = load i64, ptr %11, align 8, !tbaa !40
  %83 = add i64 %82, -1
  store i64 %83, ptr %11, align 8, !tbaa !40
  %84 = icmp ne i64 %83, 0
  br i1 %84, label %86, label %85

85:                                               ; preds = %78
  br label %113

86:                                               ; preds = %78
  br label %87

87:                                               ; preds = %86, %73
  %88 = load ptr, ptr %6, align 8, !tbaa !44
  %89 = getelementptr ptr, ptr %88, i64 3
  %90 = load ptr, ptr %89, align 8, !tbaa !4
  %91 = icmp ne ptr %90, null
  br i1 %91, label %92, label %101

92:                                               ; preds = %87
  %93 = load ptr, ptr %6, align 8, !tbaa !44
  %94 = getelementptr ptr, ptr %93, i64 3
  %95 = load ptr, ptr %94, align 8, !tbaa !4
  store ptr %95, ptr %15, align 8, !tbaa !4
  %96 = load i64, ptr %11, align 8, !tbaa !40
  %97 = add i64 %96, -1
  store i64 %97, ptr %11, align 8, !tbaa !40
  %98 = icmp ne i64 %97, 0
  br i1 %98, label %100, label %99

99:                                               ; preds = %92
  br label %113

100:                                              ; preds = %92
  br label %101

101:                                              ; preds = %100, %87
  %102 = load ptr, ptr %6, align 8, !tbaa !44
  %103 = getelementptr ptr, ptr %102, i64 4
  %104 = load ptr, ptr %103, align 8, !tbaa !4
  %105 = call i32 @PyLong_AsInt(ptr noundef %104)
  store i32 %105, ptr %16, align 4, !tbaa !38
  %106 = load i32, ptr %16, align 4, !tbaa !38
  %107 = icmp eq i32 %106, -1
  br i1 %107, label %108, label %112

108:                                              ; preds = %101
  %109 = call ptr @PyErr_Occurred()
  %110 = icmp ne ptr %109, null
  br i1 %110, label %111, label %112

111:                                              ; preds = %108
  br label %121

112:                                              ; preds = %108, %101
  br label %113

113:                                              ; preds = %112, %99, %85, %71, %58
  %114 = load ptr, ptr %5, align 8, !tbaa !4
  %115 = load ptr, ptr %12, align 8, !tbaa !4
  %116 = load ptr, ptr %13, align 8, !tbaa !4
  %117 = load ptr, ptr %14, align 8, !tbaa !4
  %118 = load ptr, ptr %15, align 8, !tbaa !4
  %119 = load i32, ptr %16, align 4, !tbaa !38
  %120 = call ptr @builtin___import___impl(ptr noundef %114, ptr noundef %115, ptr noundef %116, ptr noundef %117, ptr noundef %118, i32 noundef %119)
  store ptr %120, ptr %9, align 8, !tbaa !4
  br label %121

121:                                              ; preds = %113, %111, %51
  %122 = load ptr, ptr %9, align 8, !tbaa !4
  call void @llvm.lifetime.end.p0(i64 4, ptr %16) #9
  call void @llvm.lifetime.end.p0(i64 8, ptr %15) #9
  call void @llvm.lifetime.end.p0(i64 8, ptr %14) #9
  call void @llvm.lifetime.end.p0(i64 8, ptr %13) #9
  call void @llvm.lifetime.end.p0(i64 8, ptr %12) #9
  call void @llvm.lifetime.end.p0(i64 8, ptr %11) #9
  call void @llvm.lifetime.end.p0(i64 40, ptr %10) #9
  call void @llvm.lifetime.end.p0(i64 8, ptr %9) #9
  ret ptr %122
}