; Function Attrs: nounwind uwtable
define internal ptr @builtin___import__(ptr readnone captures(none) %0, ptr noundef %1, i64 noundef %2, ptr noundef %3) #0 {
  %5 = alloca [5 x ptr], align 16
  call void @llvm.lifetime.start.p0(i64 40, ptr nonnull %5) #9
  %.not = icmp eq ptr %3, null
  br i1 %.not, label %8, label %6

6:                                                ; preds = %4
  %7 = getelementptr i8, ptr %3, i64 16
  %.val = load i64, ptr %7, align 8, !tbaa !45
  br label %8

8:                                                ; preds = %4, %6
  %9 = phi i64 [ %.val, %6 ], [ 0, %4 ]
  %10 = add i64 %9, %2
  %11 = add i64 %10, -1
  %12 = add i64 %2, -1
  %13 = icmp ult i64 %12, 5
  %14 = icmp ne ptr %1, null
  %15 = and i1 %14, %13
  %or.cond5 = and i1 %.not, %15
  br i1 %or.cond5, label %.thread, label %16

16:                                               ; preds = %8
  %17 = call ptr @_PyArg_UnpackKeywords(ptr noundef %1, i64 noundef %2, ptr noundef null, ptr noundef %3, ptr noundef nonnull @builtin___import__._parser, i32 noundef 1, i32 noundef 5, i32 noundef 0, i32 noundef 0, ptr noundef nonnull %5) #9
  %.not55 = icmp eq ptr %17, null
  br i1 %.not55, label %42, label %.thread

.thread:                                          ; preds = %8, %16
  %18 = phi ptr [ %17, %16 ], [ %1, %8 ]
  %19 = load ptr, ptr %18, align 8, !tbaa !39
  %.not56 = icmp eq i64 %11, 0
  br i1 %.not56, label %40, label %20

20:                                               ; preds = %.thread
  %21 = getelementptr i8, ptr %18, i64 8
  %22 = load ptr, ptr %21, align 8, !tbaa !39
  %.not57 = icmp eq ptr %22, null
  br i1 %.not57, label %25, label %23

23:                                               ; preds = %20
  %24 = add i64 %10, -2
  %.not58 = icmp eq i64 %24, 0
  br i1 %.not58, label %40, label %25

25:                                               ; preds = %23, %20
  %.041 = phi i64 [ %24, %23 ], [ %11, %20 ]
  %26 = getelementptr i8, ptr %18, i64 16
  %27 = load ptr, ptr %26, align 8, !tbaa !39
  %.not59 = icmp eq ptr %27, null
  br i1 %.not59, label %30, label %28

28:                                               ; preds = %25
  %29 = add i64 %.041, -1
  %.not60 = icmp eq i64 %29, 0
  br i1 %.not60, label %40, label %30

30:                                               ; preds = %28, %25
  %.142 = phi i64 [ %29, %28 ], [ %.041, %25 ]
  %31 = getelementptr i8, ptr %18, i64 24
  %32 = load ptr, ptr %31, align 8, !tbaa !39
  %.not61 = icmp ne ptr %32, null
  %.not62 = icmp eq i64 %.142, 1
  %or.cond = select i1 %.not61, i1 %.not62, i1 false
  br i1 %or.cond, label %40, label %33

33:                                               ; preds = %30
  %34 = getelementptr i8, ptr %18, i64 32
  %35 = load ptr, ptr %34, align 8, !tbaa !39
  %36 = call i32 @PyLong_AsInt(ptr noundef %35) #9
  %37 = icmp eq i32 %36, -1
  br i1 %37, label %38, label %40

38:                                               ; preds = %33
  %39 = call ptr @PyErr_Occurred() #9
  %.not63 = icmp eq ptr %39, null
  br i1 %.not63, label %40, label %42

40:                                               ; preds = %30, %33, %38, %28, %23, %.thread
  %.039 = phi ptr [ %22, %38 ], [ %22, %33 ], [ %22, %28 ], [ %22, %23 ], [ null, %.thread ], [ %22, %30 ]
  %.037 = phi ptr [ %27, %38 ], [ %27, %33 ], [ %27, %28 ], [ null, %23 ], [ null, %.thread ], [ %27, %30 ]
  %.036 = phi ptr [ %32, %38 ], [ %32, %33 ], [ null, %28 ], [ null, %23 ], [ null, %.thread ], [ %32, %30 ]
  %.0 = phi i32 [ -1, %38 ], [ %36, %33 ], [ 0, %28 ], [ 0, %23 ], [ 0, %.thread ], [ 0, %30 ]
  %41 = call ptr @PyImport_ImportModuleLevelObject(ptr noundef %19, ptr noundef %.039, ptr noundef %.037, ptr noundef %.036, i32 noundef %.0) #9
  br label %42

42:                                               ; preds = %38, %16, %40
  %.043 = phi ptr [ null, %38 ], [ %41, %40 ], [ null, %16 ]
  call void @llvm.lifetime.end.p0(i64 40, ptr nonnull %5) #9
  ret ptr %.043
}